; Function Attrs: mustprogress nounwind uwtable
define internal fastcc noundef zeroext i1 @_ZN5clang19RecursiveASTVisitorIZNK12_GLOBAL__N_125UncountedLocalVarsChecker12checkASTDeclEPKNS_19TranslationUnitDeclERNS_4ento15AnalysisManagerERNS6_11BugReporterEE12LocalVisitorE22VisitOMPAffinityClauseEPNS_17OMPAffinityClauseE(ptr noundef nonnull align 1 dereferenceable(1) %0, ptr noundef nonnull readonly %1) unnamed_addr #0 align 2 {
  %.ptr = getelementptr inbounds nuw i8, ptr %1, i64 24
  %3 = getelementptr inbounds nuw i8, ptr %1, i64 16
  %4 = load i32, ptr %3, align 4
  %5 = zext i32 %4 to i64
  %6 = getelementptr inbounds nuw ptr, ptr %.ptr, i64 %5
  %7 = load ptr, ptr %6, align 8
  %8 = tail call fastcc noundef zeroext i1 @_ZN5clang19RecursiveASTVisitorIZNK12_GLOBAL__N_125UncountedLocalVarsChecker12checkASTDeclEPKNS_19TranslationUnitDeclERNS_4ento15AnalysisManagerERNS6_11BugReporterEE12LocalVisitorE12TraverseStmtEPNS_4StmtEPN4llvm15SmallVectorImplINSF_14PointerIntPairISE_Lj1EbNSF_21PointerLikeTypeTraitsISE_EENSF_18PointerIntPairInfoISE_Lj1ESJ_EEEEEE(ptr noundef nonnull align 1 dereferenceable(1) %0, ptr noundef %7, ptr noundef null)
  br i1 %8, label %9, label %.loopexit

9:                                                ; preds = %2
  %10 = load i32, ptr %3, align 4
  %11 = zext i32 %10 to i64
  %.idx = shl nuw nsw i64 %11, 3
  %12 = getelementptr inbounds nuw i8, ptr %1, i64 %.idx
  %.ptr16 = getelementptr inbounds nuw i8, ptr %12, i64 24
  %.not12 = icmp eq i32 %10, 0
  br i1 %.not12, label %.loopexit, label %.lr.ph

.lr.ph:                                           ; preds = %9, %.lr.ph
  %.01113 = phi ptr [ %15, %.lr.ph ], [ %.ptr, %9 ]
  %13 = load ptr, ptr %.01113, align 8
  %14 = tail call fastcc noundef zeroext i1 @_ZN5clang19RecursiveASTVisitorIZNK12_GLOBAL__N_125UncountedLocalVarsChecker12checkASTDeclEPKNS_19TranslationUnitDeclERNS_4ento15AnalysisManagerERNS6_11BugReporterEE12LocalVisitorE12TraverseStmtEPNS_4StmtEPN4llvm15SmallVectorImplINSF_14PointerIntPairISE_Lj1EbNSF_21PointerLikeTypeTraitsISE_EENSF_18PointerIntPairInfoISE_Lj1ESJ_EEEEEE(ptr noundef nonnull align 1 dereferenceable(1) %0, ptr noundef %13, ptr noundef null)
  %15 = getelementptr inbounds nuw i8, ptr %.01113, i64 8
  %.not = icmp ne ptr %15, %.ptr16
  %or.cond.not = select i1 %14, i1 %.not, i1 false
  br i1 %or.cond.not, label %.lr.ph, label %.loopexit

.loopexit:                                        ; preds = %.lr.ph, %9, %2
  %.0 = phi i1 [ false, %2 ], [ true, %9 ], [ %14, %.lr.ph ]
  ret i1 %.0
}